(dp0
S'generation'
p1
I2
sS'logbook'
p2
ccopy_reg
_reconstructor
p3
(cdeap.tools.support
Logbook
p4
c__builtin__
list
p5
(lp6
(dp7
S'nevals'
p8
I70
sS'gen'
p9
I0
sa(dp10
g8
I42
sg9
I1
sa(dp11
g8
I52
sg9
I2
sa(dp12
S'nevals'
p13
I0
sS'gen'
p14
I0
sa(dp15
g13
I42
sg14
I1
sa(dp16
g13
I39
sg14
I2
satp17
Rp18
(dp19
S'log_header'
p20
I01
sS'header'
p21
(lp22
g14
ag13
aS'fitness'
p23
aS'size'
p24
asS'columns_len'
p25
(lp26
I3
aI6
aI31
aI15
asS'buffindex'
p27
I6
sS'chapters'
p28
ccollections
defaultdict
p29
(g4
tp30
Rp31
S'fitness'
p32
g3
(g4
g5
(lp33
(dp34
S'std'
p35
cnumpy.core.multiarray
scalar
p36
(cnumpy
dtype
p37
(S'f8'
p38
I0
I1
tp39
Rp40
(I3
S'<'
p41
NNNI-1
I-1
I0
tp42
bS'\xbe\xd2\xa0\xf6\xd0\xd2\x94@'
p43
tp44
Rp45
sS'max'
p46
g36
(g40
S'\xf5\xe4#\x9c\x8b\xe2\xe4@'
p47
tp48
Rp49
sS'avg'
p50
g36
(g40
S'\x10\xe1$\x9b\xf2\xa3\xe3@'
p51
tp52
Rp53
sS'min'
p54
g36
(g40
S's\xd8p\x04zv\xe2@'
p55
tp56
Rp57
sa(dp58
g35
g36
(g40
S'\x96\xd16\x00\x975\x8a@'
p59
tp60
Rp61
sg46
g36
(g40
S'\x87N*>\xbf\xfd\xe3@'
p62
tp63
Rp64
sg50
g36
(g40
S'\xca\xa8\x9d\xe3e\x18\xe3@'
p65
tp66
Rp67
sg54
g36
(g40
S'r\x95U@\x08s\xe2@'
p68
tp69
Rp70
sa(dp71
g35
g36
(g40
S'\x14\xafwbB`~@'
p72
tp73
Rp74
sg46
g36
(g40
S'\x1d\xa0y\x13,g\xe3@'
p75
tp76
Rp77
sg50
g36
(g40
S'\x17u\xa0\xff!\xba\xe2@'
p78
tp79
Rp80
sg54
g36
(g40
S'\xcc\x13\x82\xce\x96o\xe2@'
p81
tp82
Rp83
sa(dp84
S'std'
p85
g36
(g40
S'\x14\xafwbB`~@'
p86
tp87
Rp88
sS'max'
p89
g36
(g40
S'\x1d\xa0y\x13,g\xe3@'
p90
tp91
Rp92
sS'avg'
p93
g36
(g40
S'\x17u\xa0\xff!\xba\xe2@'
p94
tp95
Rp96
sS'min'
p97
g36
(g40
S'\xcc\x13\x82\xce\x96o\xe2@'
p98
tp99
Rp100
sa(dp101
g85
g36
(g40
S'm\x82\xa1\xe1$\tj@'
p102
tp103
Rp104
sg89
g36
(g40
S'\xcb\xfe\x8d\xae\xc6\xec\xe2@'
p105
tp106
Rp107
sg93
g36
(g40
S'\xcb\x88\x1f\x00\x85\x8e\xe2@'
p108
tp109
Rp110
sg97
g36
(g40
S'\xcc\x13\x82\xce\x96o\xe2@'
p111
tp112
Rp113
sa(dp114
g85
g36
(g40
S'\xd6\xf6\x8aQP\xd2v@'
p115
tp116
Rp117
sg89
g36
(g40
S'\x80\x07A-&\x92\xe3@'
p118
tp119
Rp120
sg93
g36
(g40
S'\xfd\xc1]\xa6q\x87\xe2@'
p121
tp122
Rp123
sg97
g36
(g40
S'\xcc\x13\x82\xce\x96o\xe2@'
p124
tp125
Rp126
satp127
Rp128
(dp129
g20
I01
sg21
Nsg25
(lp130
I7
aI7
aI7
aI7
asg27
I0
sg28
g29
(g4
tp131
Rp132
sbsS'size'
p133
g3
(g4
g5
(lp134
(dp135
g35
g36
(g40
S'\x00\x00\x00\x00\x00\x00\x00\x00'
p136
tp137
Rp138
sg46
g36
(g37
(S'i4'
p139
I0
I1
tp140
Rp141
(I3
S'<'
p142
NNNI-1
I-1
I0
tp143
bS'\n\x00\x00\x00'
p144
tp145
Rp146
sg50
g36
(g40
S'\x00\x00\x00\x00\x00\x00$@'
p147
tp148
Rp149
sg54
g36
(g141
S'\n\x00\x00\x00'
p150
tp151
Rp152
sa(dp153
g35
g36
(g40
S'\x00\x00\x00\x00\x00\x00\x00\x00'
p154
tp155
Rp156
sg46
g36
(g141
S'\n\x00\x00\x00'
p157
tp158
Rp159
sg50
g36
(g40
S'\x00\x00\x00\x00\x00\x00$@'
p160
tp161
Rp162
sg54
g36
(g141
S'\n\x00\x00\x00'
p163
tp164
Rp165
sa(dp166
g35
g36
(g40
S'\x00\x00\x00\x00\x00\x00\x00\x00'
p167
tp168
Rp169
sg46
g36
(g141
S'\n\x00\x00\x00'
p170
tp171
Rp172
sg50
g36
(g40
S'\x00\x00\x00\x00\x00\x00$@'
p173
tp174
Rp175
sg54
g36
(g141
S'\n\x00\x00\x00'
p176
tp177
Rp178
sa(dp179
g85
g36
(g40
S'\x00\x00\x00\x00\x00\x00\x00\x00'
p180
tp181
Rp182
sg89
g36
(g141
S'\n\x00\x00\x00'
p183
tp184
Rp185
sg93
g36
(g40
S'\x00\x00\x00\x00\x00\x00$@'
p186
tp187
Rp188
sg97
g36
(g141
S'\n\x00\x00\x00'
p189
tp190
Rp191
sa(dp192
g85
g36
(g40
S'\x00\x00\x00\x00\x00\x00\x00\x00'
p193
tp194
Rp195
sg89
g36
(g141
S'\n\x00\x00\x00'
p196
tp197
Rp198
sg93
g36
(g40
S'\x00\x00\x00\x00\x00\x00$@'
p199
tp200
Rp201
sg97
g36
(g141
S'\n\x00\x00\x00'
p202
tp203
Rp204
sa(dp205
g85
g36
(g40
S'\x00\x00\x00\x00\x00\x00\x00\x00'
p206
tp207
Rp208
sg89
g36
(g141
S'\n\x00\x00\x00'
p209
tp210
Rp211
sg93
g36
(g40
S'\x00\x00\x00\x00\x00\x00$@'
p212
tp213
Rp214
sg97
g36
(g141
S'\n\x00\x00\x00'
p215
tp216
Rp217
satp218
Rp219
(dp220
g20
I01
sg21
Nsg25
(lp221
I3
aI3
aI3
aI3
asg27
I0
sg28
g29
(g4
tp222
Rp223
sbssbsS'rndstate'
p224
(I3
(L3454709510L
L2976110746L
L2706743103L
L3056754685L
L549740089L
L3682576525L
L3820758206L
L1896199874L
L1366157374L
L3772583032L
L1960825346L
L3726745559L
L2909767029L
L2117717621L
L693136516L
L3378709950L
L3193899682L
L1061807521L
L1312317053L
L1298042398L
L2750038268L
L2197091593L
L955813273L
L2838726738L
L3508210746L
L695486765L
L2931130452L
L1752136567L
L4239116578L
L1299445314L
L354886090L
L3177149487L
L25168689L
L120724728L
L2787077927L
L3599597711L
L1410265635L
L1784343214L
L1218917825L
L903289170L
L1702739319L
L1056854718L
L1595989173L
L1425262127L
L1453824959L
L2245817004L
L1317314430L
L1161313565L
L10270396L
L2831279737L
L2339583517L
L1710148120L
L3975941399L
L1124734665L
L1283848516L
L2459552664L
L1568835984L
L1674446914L
L271085352L
L83793042L
L1404657855L
L3434796374L
L3320332174L
L3843329793L
L3518825118L
L3075488746L
L1522219684L
L2523373566L
L1107658671L
L7333681L
L1342878860L
L3677726992L
L2472650914L
L3176925769L
L3272085778L
L954117222L
L1949860467L
L2403088851L
L1446737627L
L3994761393L
L1778314142L
L2067330130L
L3354094922L
L3632057569L
L911314758L
L1353757947L
L4178880576L
L2752912373L
L2136055534L
L1113550708L
L845113488L
L3488621627L
L734409095L
L1331398448L
L2800232242L
L860198951L
L1834412854L
L3225950458L
L4215351857L
L4008103403L
L1488782084L
L2244101064L
L312387488L
L2830231251L
L751150157L
L2363943342L
L595191906L
L3003444280L
L3119825242L
L3830926636L
L914668050L
L4153767927L
L4133811846L
L2159716834L
L800815742L
L816129797L
L3394098932L
L74389234L
L3709415479L
L5459298L
L2452865765L
L4199524076L
L2269365920L
L2764332941L
L2773517246L
L4076869217L
L47427562L
L1214737320L
L3723645963L
L3737446882L
L2253244783L
L1965373904L
L3243151310L
L2052067437L
L534402810L
L882635200L
L2363803767L
L3382094175L
L1479217963L
L2384948866L
L3974108500L
L1610950710L
L2699312087L
L4165227947L
L2374137633L
L3391975923L
L2089907396L
L4268593423L
L842806734L
L602080376L
L3589221797L
L101133558L
L380635124L
L508275995L
L2047760102L
L3833292179L
L1315195133L
L334351261L
L3634971753L
L2945439021L
L3219542370L
L940790046L
L816837893L
L3291307264L
L1317526783L
L2370896406L
L2562161646L
L3162090397L
L1005023750L
L2047191579L
L1043339145L
L2090184849L
L3004112556L
L891677397L
L2367380118L
L1598809283L
L4271532557L
L3656952809L
L2319969052L
L3449782852L
L4212208288L
L2582694133L
L2635928522L
L1455450857L
L1342222190L
L4242147667L
L3248977458L
L3265211431L
L1610087823L
L253952596L
L775896082L
L2225458273L
L1423753839L
L2573656093L
L728824586L
L3279353298L
L4109199215L
L2476870811L
L1956516805L
L3809962162L
L2147206114L
L394924963L
L3447978913L
L2090459789L
L1430899340L
L3373358028L
L697432284L
L2383595785L
L1471862653L
L3174042829L
L2853011222L
L1468435722L
L3771381075L
L3523921701L
L3711613658L
L4196832194L
L1505150828L
L2759950033L
L1825215498L
L4011966799L
L2208527992L
L2943103518L
L3499758214L
L3395604277L
L337346305L
L3167691521L
L3138759077L
L1526783103L
L3935650027L
L1277781464L
L780918535L
L929595481L
L1990220288L
L1848787243L
L2385096396L
L4053186697L
L96287149L
L3143874114L
L276956646L
L851693875L
L2250138423L
L909513089L
L2384999909L
L297547102L
L2715159462L
L3688217182L
L686815388L
L2374748783L
L1283008391L
L396344221L
L1697287440L
L1837011170L
L4208137185L
L1125970851L
L1459216322L
L3216544015L
L1974639975L
L2375314370L
L1424716059L
L3085226019L
L3748997007L
L3241622918L
L1701231101L
L3149761989L
L2838489807L
L3277711891L
L3088204479L
L1812849558L
L3508532772L
L2892096131L
L619836938L
L1007063306L
L3362565130L
L1173077466L
L2305630657L
L94556877L
L2451472109L
L1146743409L
L3577042869L
L1132301435L
L170872336L
L2122955118L
L755975065L
L181590457L
L1744375606L
L665362523L
L775580326L
L3233505656L
L1747096464L
L3275514272L
L1332508544L
L1342479379L
L3675001454L
L3538639942L
L116685925L
L2940375330L
L618802348L
L633396011L
L1668412963L
L2251123869L
L931806173L
L2336571892L
L2232118243L
L1046002619L
L1141762223L
L3252124026L
L1167721779L
L248766229L
L819931020L
L1093581458L
L2662939760L
L1406838579L
L3515701242L
L3116467080L
L2699984827L
L872391117L
L2022118637L
L3406483878L
L635121586L
L2489266913L
L2898672726L
L69867191L
L21693995L
L360785838L
L1581368177L
L1257756458L
L3563177900L
L3811961933L
L3397375650L
L4131798980L
L4145104393L
L1021897347L
L891821154L
L4293977525L
L2537132403L
L326468992L
L1100968094L
L366244811L
L2482416490L
L1977199779L
L896052932L
L3076559640L
L3791846410L
L3770247300L
L122589225L
L1287144809L
L3672533954L
L3197065798L
L4079348615L
L735869942L
L983891493L
L1123982563L
L3577535717L
L3868443403L
L321390441L
L3269726939L
L461504022L
L4263600883L
L1678109707L
L2215539836L
L1899925744L
L3430067436L
L2524709450L
L2865493772L
L1353523366L
L2822834727L
L2684915795L
L3514728842L
L499854382L
L2802102324L
L3579189357L
L1075458385L
L690177365L
L960081703L
L748635291L
L1751024641L
L4274061373L
L1765611153L
L2514427276L
L3087022883L
L2424172175L
L2380841354L
L578067692L
L2886374195L
L4247308905L
L4122962711L
L45092194L
L4037214465L
L3176650262L
L1880543254L
L988738638L
L2819537466L
L1910411935L
L2043579887L
L20895560L
L2492761806L
L1781412117L
L2642000916L
L1484502745L
L3902670409L
L3938335649L
L4146394563L
L1741103470L
L1763912675L
L183638013L
L3358045756L
L1758943532L
L1459339254L
L3756750507L
L2965839780L
L3022722183L
L1654226929L
L4112109268L
L337293930L
L4059407900L
L3011376951L
L1763308315L
L2463051946L
L1062646266L
L691301006L
L1228471417L
L829730392L
L1407516157L
L3826968729L
L2801408014L
L1875735581L
L88318217L
L2806923433L
L3374652440L
L4293856598L
L1522587405L
L1100064976L
L1136138774L
L3834193742L
L1042973799L
L1485122662L
L163709264L
L3747905637L
L1423161812L
L1372697675L
L1364445239L
L1591590353L
L4259067751L
L2777441602L
L3734978073L
L2633366163L
L1202925034L
L1874359326L
L1296049537L
L296739747L
L492473300L
L816982750L
L1375870595L
L2476385625L
L3483693774L
L1850866237L
L605348850L
L1230730518L
L1080228276L
L4117881608L
L2866662823L
L3644516920L
L3702142820L
L2567105576L
L2705796890L
L436833216L
L648141011L
L606432162L
L844272620L
L539220926L
L3788012033L
L1746674029L
L3990244284L
L2470392593L
L2219879109L
L2033604451L
L3925317776L
L3984789213L
L4098820770L
L847621884L
L1834707211L
L1502512713L
L499729600L
L2237358611L
L3493194065L
L3309236899L
L3814192376L
L72397652L
L1552377408L
L947909847L
L1607956435L
L915483789L
L1693389531L
L1218025052L
L4265565363L
L508489889L
L2775525637L
L489944287L
L2972480029L
L2578458403L
L2592904025L
L2516680622L
L315845523L
L2092785867L
L4254451265L
L3617678203L
L2918751713L
L2803377708L
L3516281376L
L3085759426L
L3075315979L
L557236983L
L1770432492L
L3763108055L
L826525387L
L1213590891L
L4038613655L
L2702004815L
L3266499866L
L1874240863L
L821234504L
L1157122689L
L2998256301L
L1325807484L
L2036893720L
L840120676L
L4007460220L
L3702964472L
L2523798244L
L405009984L
L2228133221L
L3357272017L
L1045389764L
L2285120875L
L1570985065L
L3511477619L
L1799567354L
L4033769727L
L198750371L
L618211124L
L222005111L
L43670476L
L1244918465L
L1999390307L
L187759165L
L4103454311L
L747051164L
L2614661353L
L16286294L
L4128431842L
L2612429969L
L2253474551L
L627172332L
L1359704049L
L2558975678L
L1903801596L
L2156885593L
L1730888537L
L3571076211L
L538359256L
L2439808771L
L3807030009L
L4003633622L
L4170607068L
L292429444L
L3983805276L
L3703482569L
L249850748L
L619253990L
L1004449741L
L4255886758L
L3582926845L
L3282793257L
L578266448L
L635911041L
L4192921811L
L373680124L
L896206279L
L747426096L
L1522056769L
L2918010080L
L1449400846L
L811387222L
L1772715101L
L1428030538L
L2077206406L
L1165257658L
L353568834L
L3104703660L
L495853962L
L4058955695L
L2745628105L
L2881135611L
L3172415981L
L2997908666L
L1249290353L
L894659949L
L2041123795L
L3046779978L
L1186551166L
L1850972084L
L187705712L
L3214491404L
L838799681L
L4139840846L
L3804788700L
L4139127998L
L1256742203L
L3129304833L
L2271893765L
L2921480943L
L1744626083L
L1193920069L
L1529132026L
L42564047L
L4130614203L
L822698833L
L662808662L
L1240490396L
L2103751696L
L2164775473L
L943349714L
L3575438670L
L215705238L
L212L
tp225
Ntp226
sS'halloffame'
p227
g3
(cdeap.tools.support
HallOfFame
p228
c__builtin__
object
p229
Ntp230
Rp231
(dp232
S'keys'
p233
(lp234
g3
(cdeap.creator
FitnessMin
p235
g229
Ntp236
Rp237
(dp238
S'wvalues'
p239
(g36
(g40
S'\xcc\x13\x82\xce\x96o\xe2\xc0'
p240
tp241
Rp242
tp243
sbasS'items'
p244
(lp245
g3
(cdeap.creator
Individual
p246
g5
(lp247
I1
aI1
aI1
aI1
aI1
aI1
aI0
aI1
aI1
aI1
atp248
Rp249
(dp250
g23
g237
sbasS'maxsize'
p251
I1
sS'similar'
p252
coperator
eq
p253
sbsS'population'
p254
(lp255
g3
(g246
g5
(lp256
I1
aI1
aI1
aI1
aI1
aI0
aI1
aI1
aI1
aI1
atp257
Rp258
(dp259
g23
g3
(g235
g229
Ntp260
Rp261
(dp262
g239
(g36
(g40
S'r\x95U@\x08s\xe2\xc0'
p263
tp264
Rp265
tp266
sbsbag3
(g246
g5
(lp267
I1
aI1
aI1
aI1
aI1
aI0
aI1
aI1
aI1
aI1
atp268
Rp269
(dp270
g23
g3
(g235
g229
Ntp271
Rp272
(dp273
g239
(g36
(g40
S'r\x95U@\x08s\xe2\xc0'
p274
tp275
Rp276
tp277
sbsbag3
(g246
g5
(lp278
I1
aI1
aI1
aI1
aI1
aI0
aI1
aI1
aI1
aI1
atp279
Rp280
(dp281
g23
g3
(g235
g229
Ntp282
Rp283
(dp284
g239
(g36
(g40
S'r\x95U@\x08s\xe2\xc0'
p285
tp286
Rp287
tp288
sbsbag3
(g246
g5
(lp289
I1
aI1
aI1
aI1
aI0
aI0
aI1
aI1
aI1
aI1
atp290
Rp291
(dp292
g23
g3
(g235
g229
Ntp293
Rp294
(dp295
g239
(g36
(g40
S'\xb1\xbbq>\xd1\x80\xe2\xc0'
p296
tp297
Rp298
tp299
sbsbag3
(g246
g5
(lp300
I1
aI1
aI1
aI1
aI0
aI0
aI1
aI1
aI1
aI1
atp301
Rp302
(dp303
g23
g3
(g235
g229
Ntp304
Rp305
(dp306
g239
(g36
(g40
S'\xb1\xbbq>\xd1\x80\xe2\xc0'
p307
tp308
Rp309
tp310
sbsbag3
(g246
g5
(lp311
I1
aI1
aI1
aI1
aI1
aI0
aI0
aI1
aI1
aI1
atp312
Rp313
(dp314
g23
g3
(g235
g229
Ntp315
Rp316
(dp317
g239
(g36
(g40
S's\xd8p\x04zv\xe2\xc0'
p318
tp319
Rp320
tp321
sbsbag3
(g246
g5
(lp322
I1
aI1
aI1
aI1
aI1
aI0
aI0
aI1
aI1
aI1
atp323
Rp324
(dp325
g23
g3
(g235
g229
Ntp326
Rp327
(dp328
g239
(g36
(g40
S's\xd8p\x04zv\xe2\xc0'
p329
tp330
Rp331
tp332
sbsbag3
(g246
g5
(lp333
I1
aI1
aI1
aI1
aI1
aI0
aI1
aI1
aI1
aI1
atp334
Rp335
(dp336
g23
g3
(g235
g229
Ntp337
Rp338
(dp339
g239
(g36
(g40
S'r\x95U@\x08s\xe2\xc0'
p340
tp341
Rp342
tp343
sbsbag3
(g246
g5
(lp344
I1
aI1
aI0
aI0
aI0
aI1
aI1
aI1
aI1
aI1
atp345
Rp346
(dp347
g23
g3
(g235
g229
Ntp348
Rp349
(dp350
g239
(g36
(g40
S'\xa1\x01N\xa0\xfe\xcc\xe2\xc0'
p351
tp352
Rp353
tp354
sbsbag3
(g246
g5
(lp355
I1
aI1
aI0
aI0
aI1
aI0
aI1
aI1
aI1
aI1
atp356
Rp357
(dp358
g23
g3
(g235
g229
Ntp359
Rp360
(dp361
g239
(g36
(g40
S'\xabeWX\x0b\xc6\xe2\xc0'
p362
tp363
Rp364
tp365
sbsbag3
(g246
g5
(lp366
I1
aI1
aI1
aI1
aI0
aI0
aI1
aI1
aI1
aI1
atp367
Rp368
(dp369
g23
g3
(g235
g229
Ntp370
Rp371
(dp372
g239
g310
sbsbag3
(g246
g5
(lp373
I1
aI1
aI1
aI1
aI1
aI0
aI0
aI1
aI1
aI1
atp374
Rp375
(dp376
g23
g3
(g235
g229
Ntp377
Rp378
(dp379
g239
(g36
(g40
S's\xd8p\x04zv\xe2\xc0'
p380
tp381
Rp382
tp383
sbsbag3
(g246
g5
(lp384
I0
aI1
aI1
aI1
aI1
aI0
aI1
aI1
aI1
aI1
atp385
Rp386
(dp387
g23
g3
(g235
g229
Ntp388
Rp389
(dp390
g239
(g36
(g40
S'\xbc\x02\xdf<\x01R\xe3\xc0'
p391
tp392
Rp393
tp394
sbsbag3
(g246
g5
(lp395
I1
aI1
aI1
aI1
aI1
aI0
aI1
aI1
aI1
aI1
atp396
Rp397
(dp398
g23
g3
(g235
g229
Ntp399
Rp400
(dp401
g239
(g36
(g40
S'r\x95U@\x08s\xe2\xc0'
p402
tp403
Rp404
tp405
sbsbag3
(g246
g5
(lp406
I1
aI1
aI1
aI1
aI0
aI0
aI1
aI1
aI1
aI1
atp407
Rp408
(dp409
g23
g3
(g235
g229
Ntp410
Rp411
(dp412
g239
(g36
(g40
S'\xb1\xbbq>\xd1\x80\xe2\xc0'
p413
tp414
Rp415
tp416
sbsbag3
(g246
g5
(lp417
I1
aI1
aI1
aI0
aI1
aI0
aI1
aI1
aI1
aI1
atp418
Rp419
(dp420
g23
g3
(g235
g229
Ntp421
Rp422
(dp423
g239
(g36
(g40
S'\x84E\x0ba\x9f\x8e\xe2\xc0'
p424
tp425
Rp426
tp427
sbsbag3
(g246
g5
(lp428
I1
aI1
aI1
aI1
aI1
aI0
aI0
aI1
aI1
aI1
atp429
Rp430
(dp431
g23
g3
(g235
g229
Ntp432
Rp433
(dp434
g239
(g36
(g40
S's\xd8p\x04zv\xe2\xc0'
p435
tp436
Rp437
tp438
sbsbag3
(g246
g5
(lp439
I1
aI1
aI1
aI1
aI1
aI0
aI1
aI1
aI1
aI1
atp440
Rp441
(dp442
g23
g3
(g235
g229
Ntp443
Rp444
(dp445
g239
(g36
(g40
S'r\x95U@\x08s\xe2\xc0'
p446
tp447
Rp448
tp449
sbsbag3
(g246
g5
(lp450
I1
aI1
aI1
aI1
aI1
aI0
aI0
aI1
aI1
aI1
atp451
Rp452
(dp453
g23
g3
(g235
g229
Ntp454
Rp455
(dp456
g239
(g36
(g40
S's\xd8p\x04zv\xe2\xc0'
p457
tp458
Rp459
tp460
sbsbag3
(g246
g5
(lp461
I1
aI1
aI1
aI0
aI1
aI0
aI1
aI1
aI1
aI1
atp462
Rp463
(dp464
g23
g3
(g235
g229
Ntp465
Rp466
(dp467
g239
(g36
(g40
S'\x84E\x0ba\x9f\x8e\xe2\xc0'
p468
tp469
Rp470
tp471
sbsbag3
(g246
g5
(lp472
I1
aI1
aI1
aI1
aI0
aI0
aI1
aI1
aI1
aI1
atp473
Rp474
(dp475
g23
g3
(g235
g229
Ntp476
Rp477
(dp478
g239
(g36
(g40
S'\xb1\xbbq>\xd1\x80\xe2\xc0'
p479
tp480
Rp481
tp482
sbsbag3
(g246
g5
(lp483
I1
aI1
aI1
aI1
aI1
aI1
aI0
aI1
aI1
aI1
atp484
Rp485
(dp486
g23
g3
(g235
g229
Ntp487
Rp488
(dp489
g239
(g36
(g40
S'\xcc\x13\x82\xce\x96o\xe2\xc0'
p490
tp491
Rp492
tp493
sbsbag3
(g246
g5
(lp494
I1
aI1
aI1
aI1
aI1
aI0
aI0
aI1
aI1
aI1
atp495
Rp496
(dp497
g23
g3
(g235
g229
Ntp498
Rp499
(dp500
g239
(g36
(g40
S's\xd8p\x04zv\xe2\xc0'
p501
tp502
Rp503
tp504
sbsbag3
(g246
g5
(lp505
I1
aI1
aI1
aI1
aI1
aI0
aI0
aI1
aI1
aI1
atp506
Rp507
(dp508
g23
g3
(g235
g229
Ntp509
Rp510
(dp511
g239
(g36
(g40
S's\xd8p\x04zv\xe2\xc0'
p512
tp513
Rp514
tp515
sbsbag3
(g246
g5
(lp516
I1
aI1
aI1
aI1
aI1
aI0
aI0
aI1
aI1
aI1
atp517
Rp518
(dp519
g23
g3
(g235
g229
Ntp520
Rp521
(dp522
g239
(g36
(g40
S's\xd8p\x04zv\xe2\xc0'
p523
tp524
Rp525
tp526
sbsbag3
(g246
g5
(lp527
I1
aI1
aI1
aI1
aI1
aI0
aI0
aI1
aI1
aI1
atp528
Rp529
(dp530
g23
g3
(g235
g229
Ntp531
Rp532
(dp533
g239
(g36
(g40
S's\xd8p\x04zv\xe2\xc0'
p534
tp535
Rp536
tp537
sbsbag3
(g246
g5
(lp538
I1
aI0
aI1
aI1
aI1
aI0
aI1
aI1
aI1
aI1
atp539
Rp540
(dp541
g23
g3
(g235
g229
Ntp542
Rp543
(dp544
g239
(g36
(g40
S'\xdd\xd5\xed.\xe0\xe1\xe2\xc0'
p545
tp546
Rp547
tp548
sbsbag3
(g246
g5
(lp549
I1
aI1
aI1
aI0
aI1
aI0
aI1
aI1
aI1
aI1
atp550
Rp551
(dp552
g23
g3
(g235
g229
Ntp553
Rp554
(dp555
g239
(g36
(g40
S'\x84E\x0ba\x9f\x8e\xe2\xc0'
p556
tp557
Rp558
tp559
sbsbag3
(g246
g5
(lp560
I1
aI1
aI1
aI1
aI1
aI0
aI1
aI1
aI1
aI1
atp561
Rp562
(dp563
g23
g3
(g235
g229
Ntp564
Rp565
(dp566
g239
(g36
(g40
S'r\x95U@\x08s\xe2\xc0'
p567
tp568
Rp569
tp570
sbsbag3
(g246
g5
(lp571
I1
aI1
aI1
aI1
aI1
aI0
aI0
aI1
aI1
aI1
atp572
Rp573
(dp574
g23
g3
(g235
g229
Ntp575
Rp576
(dp577
g239
g515
sbsbag3
(g246
g5
(lp578
I1
aI1
aI1
aI1
aI0
aI0
aI1
aI1
aI1
aI1
atp579
Rp580
(dp581
g23
g3
(g235
g229
Ntp582
Rp583
(dp584
g239
(g36
(g40
S'\xb1\xbbq>\xd1\x80\xe2\xc0'
p585
tp586
Rp587
tp588
sbsbag3
(g246
g5
(lp589
I1
aI1
aI1
aI0
aI1
aI0
aI1
aI1
aI1
aI1
atp590
Rp591
(dp592
g23
g3
(g235
g229
Ntp593
Rp594
(dp595
g239
(g36
(g40
S'\x84E\x0ba\x9f\x8e\xe2\xc0'
p596
tp597
Rp598
tp599
sbsbag3
(g246
g5
(lp600
I1
aI1
aI1
aI0
aI1
aI0
aI1
aI1
aI1
aI1
atp601
Rp602
(dp603
g23
g3
(g235
g229
Ntp604
Rp605
(dp606
g239
(g36
(g40
S'\x84E\x0ba\x9f\x8e\xe2\xc0'
p607
tp608
Rp609
tp610
sbsbag3
(g246
g5
(lp611
I1
aI1
aI1
aI1
aI0
aI0
aI1
aI1
aI1
aI1
atp612
Rp613
(dp614
g23
g3
(g235
g229
Ntp615
Rp616
(dp617
g239
g310
sbsbag3
(g246
g5
(lp618
I1
aI1
aI1
aI0
aI1
aI0
aI0
aI1
aI1
aI1
atp619
Rp620
(dp621
g23
g3
(g235
g229
Ntp622
Rp623
(dp624
g239
(g36
(g40
S'<Oe\xb7\x13\x92\xe2\xc0'
p625
tp626
Rp627
tp628
sbsbag3
(g246
g5
(lp629
I1
aI1
aI1
aI1
aI1
aI0
aI0
aI1
aI1
aI1
atp630
Rp631
(dp632
g23
g3
(g235
g229
Ntp633
Rp634
(dp635
g239
(g36
(g40
S's\xd8p\x04zv\xe2\xc0'
p636
tp637
Rp638
tp639
sbsbag3
(g246
g5
(lp640
I1
aI1
aI1
aI1
aI0
aI1
aI1
aI1
aI1
aI1
atp641
Rp642
(dp643
g23
g3
(g235
g229
Ntp644
Rp645
(dp646
g239
(g36
(g40
S'\xad\xf1\xd3\x1a\xecy\xe2\xc0'
p647
tp648
Rp649
tp650
sbsbag3
(g246
g5
(lp651
I1
aI1
aI1
aI1
aI1
aI0
aI1
aI1
aI1
aI1
atp652
Rp653
(dp654
g23
g3
(g235
g229
Ntp655
Rp656
(dp657
g239
g449
sbsbag3
(g246
g5
(lp658
I1
aI1
aI1
aI1
aI1
aI0
aI1
aI1
aI1
aI1
atp659
Rp660
(dp661
g23
g3
(g235
g229
Ntp662
Rp663
(dp664
g239
(g36
(g40
S'r\x95U@\x08s\xe2\xc0'
p665
tp666
Rp667
tp668
sbsbag3
(g246
g5
(lp669
I1
aI1
aI1
aI1
aI0
aI0
aI1
aI1
aI1
aI1
atp670
Rp671
(dp672
g23
g3
(g235
g229
Ntp673
Rp674
(dp675
g239
(g36
(g40
S'\xb1\xbbq>\xd1\x80\xe2\xc0'
p676
tp677
Rp678
tp679
sbsbag3
(g246
g5
(lp680
I1
aI1
aI1
aI1
aI1
aI0
aI0
aI1
aI1
aI1
atp681
Rp682
(dp683
g23
g3
(g235
g229
Ntp684
Rp685
(dp686
g239
(g36
(g40
S's\xd8p\x04zv\xe2\xc0'
p687
tp688
Rp689
tp690
sbsbag3
(g246
g5
(lp691
I1
aI1
aI1
aI1
aI1
aI0
aI1
aI1
aI1
aI1
atp692
Rp693
(dp694
g23
g3
(g235
g229
Ntp695
Rp696
(dp697
g239
g277
sbsbag3
(g246
g5
(lp698
I1
aI1
aI1
aI1
aI0
aI0
aI1
aI1
aI1
aI1
atp699
Rp700
(dp701
g23
g3
(g235
g229
Ntp702
Rp703
(dp704
g239
(g36
(g40
S'\xb1\xbbq>\xd1\x80\xe2\xc0'
p705
tp706
Rp707
tp708
sbsbag3
(g246
g5
(lp709
I1
aI1
aI1
aI1
aI1
aI0
aI0
aI1
aI1
aI1
atp710
Rp711
(dp712
g23
g3
(g235
g229
Ntp713
Rp714
(dp715
g239
(g36
(g40
S's\xd8p\x04zv\xe2\xc0'
p716
tp717
Rp718
tp719
sbsbag3
(g246
g5
(lp720
I1
aI1
aI1
aI1
aI1
aI0
aI1
aI1
aI1
aI1
atp721
Rp722
(dp723
g23
g3
(g235
g229
Ntp724
Rp725
(dp726
g239
(g36
(g40
S'r\x95U@\x08s\xe2\xc0'
p727
tp728
Rp729
tp730
sbsbag3
(g246
g5
(lp731
I1
aI1
aI1
aI1
aI0
aI0
aI0
aI1
aI1
aI1
atp732
Rp733
(dp734
g23
g3
(g235
g229
Ntp735
Rp736
(dp737
g239
(g36
(g40
S'\x96W\xacKD\x84\xe2\xc0'
p738
tp739
Rp740
tp741
sbsbag3
(g246
g5
(lp742
I1
aI1
aI1
aI1
aI1
aI0
aI0
aI1
aI1
aI0
atp743
Rp744
(dp745
g23
g3
(g235
g229
Ntp746
Rp747
(dp748
g239
(g36
(g40
S'\xa3\xdd\xc3\xa12\xae\xe2\xc0'
p749
tp750
Rp751
tp752
sbsbag3
(g246
g5
(lp753
I1
aI1
aI1
aI1
aI0
aI0
aI1
aI1
aI1
aI1
atp754
Rp755
(dp756
g23
g3
(g235
g229
Ntp757
Rp758
(dp759
g239
(g36
(g40
S'\xb1\xbbq>\xd1\x80\xe2\xc0'
p760
tp761
Rp762
tp763
sbsbag3
(g246
g5
(lp764
I1
aI1
aI1
aI1
aI1
aI0
aI0
aI1
aI1
aI1
atp765
Rp766
(dp767
g23
g3
(g235
g229
Ntp768
Rp769
(dp770
g239
g460
sbsbag3
(g246
g5
(lp771
I0
aI1
aI1
aI1
aI1
aI0
aI1
aI1
aI0
aI1
atp772
Rp773
(dp774
g23
g3
(g235
g229
Ntp775
Rp776
(dp777
g239
(g36
(g40
S'\x80\x07A-&\x92\xe3\xc0'
p778
tp779
Rp780
tp781
sbsbag3
(g246
g5
(lp782
I1
aI1
aI1
aI0
aI1
aI0
aI1
aI1
aI1
aI1
atp783
Rp784
(dp785
g23
g3
(g235
g229
Ntp786
Rp787
(dp788
g239
(g36
(g40
S'\x84E\x0ba\x9f\x8e\xe2\xc0'
p789
tp790
Rp791
tp792
sbsbag3
(g246
g5
(lp793
I1
aI1
aI1
aI1
aI1
aI0
aI0
aI1
aI1
aI1
atp794
Rp795
(dp796
g23
g3
(g235
g229
Ntp797
Rp798
(dp799
g239
(g36
(g40
S's\xd8p\x04zv\xe2\xc0'
p800
tp801
Rp802
tp803
sbsbag3
(g246
g5
(lp804
I1
aI1
aI1
aI1
aI1
aI0
aI0
aI1
aI1
aI1
atp805
Rp806
(dp807
g23
g3
(g235
g229
Ntp808
Rp809
(dp810
g239
(g36
(g40
S's\xd8p\x04zv\xe2\xc0'
p811
tp812
Rp813
tp814
sbsbag3
(g246
g5
(lp815
I1
aI1
aI1
aI1
aI1
aI0
aI1
aI1
aI1
aI1
atp816
Rp817
(dp818
g23
g3
(g235
g229
Ntp819
Rp820
(dp821
g239
g405
sbsbag3
(g246
g5
(lp822
I1
aI1
aI1
aI1
aI0
aI0
aI1
aI1
aI1
aI1
atp823
Rp824
(dp825
g23
g3
(g235
g229
Ntp826
Rp827
(dp828
g239
(g36
(g40
S'\xb1\xbbq>\xd1\x80\xe2\xc0'
p829
tp830
Rp831
tp832
sbsbag3
(g246
g5
(lp833
I1
aI1
aI1
aI0
aI0
aI0
aI1
aI1
aI1
aI1
atp834
Rp835
(dp836
g23
g3
(g235
g229
Ntp837
Rp838
(dp839
g239
(g36
(g40
S'\xe3G"\xa8r\x9c\xe2\xc0'
p840
tp841
Rp842
tp843
sbsbag3
(g246
g5
(lp844
I1
aI1
aI1
aI1
aI1
aI0
aI1
aI1
aI1
aI1
atp845
Rp846
(dp847
g23
g3
(g235
g229
Ntp848
Rp849
(dp850
g239
(g36
(g40
S'r\x95U@\x08s\xe2\xc0'
p851
tp852
Rp853
tp854
sbsbag3
(g246
g5
(lp855
I1
aI1
aI1
aI1
aI1
aI0
aI0
aI1
aI1
aI1
atp856
Rp857
(dp858
g23
g3
(g235
g229
Ntp859
Rp860
(dp861
g239
(g36
(g40
S's\xd8p\x04zv\xe2\xc0'
p862
tp863
Rp864
tp865
sbsbag3
(g246
g5
(lp866
I1
aI1
aI1
aI0
aI1
aI0
aI0
aI1
aI1
aI1
atp867
Rp868
(dp869
g23
g3
(g235
g229
Ntp870
Rp871
(dp872
g239
(g36
(g40
S'<Oe\xb7\x13\x92\xe2\xc0'
p873
tp874
Rp875
tp876
sbsbag3
(g246
g5
(lp877
I1
aI1
aI1
aI0
aI1
aI0
aI1
aI1
aI1
aI1
atp878
Rp879
(dp880
g23
g3
(g235
g229
Ntp881
Rp882
(dp883
g239
(g36
(g40
S'\x84E\x0ba\x9f\x8e\xe2\xc0'
p884
tp885
Rp886
tp887
sbsbag3
(g246
g5
(lp888
I1
aI1
aI1
aI1
aI1
aI0
aI0
aI1
aI1
aI1
atp889
Rp890
(dp891
g23
g3
(g235
g229
Ntp892
Rp893
(dp894
g239
(g36
(g40
S's\xd8p\x04zv\xe2\xc0'
p895
tp896
Rp897
tp898
sbsbag3
(g246
g5
(lp899
I1
aI1
aI1
aI1
aI1
aI0
aI0
aI1
aI1
aI1
atp900
Rp901
(dp902
g23
g3
(g235
g229
Ntp903
Rp904
(dp905
g239
(g36
(g40
S's\xd8p\x04zv\xe2\xc0'
p906
tp907
Rp908
tp909
sbsbag3
(g246
g5
(lp910
I1
aI1
aI1
aI1
aI1
aI0
aI1
aI1
aI1
aI1
atp911
Rp912
(dp913
g23
g3
(g235
g229
Ntp914
Rp915
(dp916
g239
(g36
(g40
S'r\x95U@\x08s\xe2\xc0'
p917
tp918
Rp919
tp920
sbsbag3
(g246
g5
(lp921
I1
aI1
aI1
aI1
aI0
aI0
aI1
aI1
aI1
aI1
atp922
Rp923
(dp924
g23
g3
(g235
g229
Ntp925
Rp926
(dp927
g239
(g36
(g40
S'\xb1\xbbq>\xd1\x80\xe2\xc0'
p928
tp929
Rp930
tp931
sbsbag3
(g246
g5
(lp932
I1
aI1
aI1
aI1
aI0
aI0
aI1
aI1
aI1
aI1
atp933
Rp934
(dp935
g23
g3
(g235
g229
Ntp936
Rp937
(dp938
g239
g416
sbsbag3
(g246
g5
(lp939
I1
aI1
aI1
aI1
aI1
aI0
aI0
aI1
aI1
aI1
atp940
Rp941
(dp942
g23
g3
(g235
g229
Ntp943
Rp944
(dp945
g239
g438
sbsbag3
(g246
g5
(lp946
I1
aI1
aI1
aI1
aI1
aI0
aI0
aI1
aI1
aI1
atp947
Rp948
(dp949
g23
g3
(g235
g229
Ntp950
Rp951
(dp952
g239
(g36
(g40
S's\xd8p\x04zv\xe2\xc0'
p953
tp954
Rp955
tp956
sbsbag3
(g246
g5
(lp957
I1
aI1
aI1
aI1
aI1
aI0
aI0
aI1
aI1
aI1
atp958
Rp959
(dp960
g23
g3
(g235
g229
Ntp961
Rp962
(dp963
g239
(g36
(g40
S's\xd8p\x04zv\xe2\xc0'
p964
tp965
Rp966
tp967
sbsbag3
(g246
g5
(lp968
I1
aI1
aI1
aI1
aI1
aI0
aI0
aI1
aI1
aI1
atp969
Rp970
(dp971
g23
g3
(g235
g229
Ntp972
Rp973
(dp974
g239
(g36
(g40
S's\xd8p\x04zv\xe2\xc0'
p975
tp976
Rp977
tp978
sbsbag3
(g246
g5
(lp979
I1
aI1
aI1
aI1
aI1
aI0
aI1
aI1
aI1
aI1
atp980
Rp981
(dp982
g23
g3
(g235
g229
Ntp983
Rp984
(dp985
g239
(g36
(g40
S'r\x95U@\x08s\xe2\xc0'
p986
tp987
Rp988
tp989
sbsbas.